; Function Attrs: mustprogress uwtable
define hidden void @_ZN4cvc58internal13preprocessing24PreprocessingPassContext15addSubstitutionERKNS0_12NodeTemplateILb1EEES6_PNS0_14ProofGeneratorE(ptr noundef nonnull readonly align 8 captures(none) dereferenceable(168) %0, ptr noundef nonnull align 8 dereferenceable(8) %1, ptr noundef nonnull align 8 dereferenceable(8) %2, ptr noundef %3) local_unnamed_addr #4 align 2 personality ptr @__gxx_personality_v0 {
  %5 = alloca %"class.cvc5::internal::NodeTemplate", align 8
  %6 = alloca %"class.cvc5::internal::NodeTemplate", align 8
  %7 = getelementptr inbounds nuw i8, ptr %0, i64 24
  %8 = load ptr, ptr %7, align 8, !tbaa !24
  tail call void @_ZNK4cvc58internal4prop10PropEngine26notifyTopLevelSubstitutionERKNS0_12NodeTemplateILb1EEES6_(ptr noundef nonnull align 8 dereferenceable(416) %8, ptr noundef nonnull align 8 dereferenceable(8) %1, ptr noundef nonnull align 8 dereferenceable(8) %2)
  %9 = getelementptr inbounds nuw i8, ptr %0, i64 8
  %10 = load ptr, ptr %9, align 8, !tbaa !37
  %11 = tail call noundef nonnull align 8 dereferenceable(608) ptr @_ZN4cvc58internal3Env24getTopLevelSubstitutionsEv(ptr noundef nonnull align 8 dereferenceable(696) %10)
  %12 = load ptr, ptr %1, align 8, !tbaa !47
  store ptr %12, ptr %5, align 8, !tbaa !50
  %13 = load ptr, ptr %2, align 8, !tbaa !47
  store ptr %13, ptr %6, align 8, !tbaa !50
  call void @_ZN4cvc58internal6theory20TrustSubstitutionMap15addSubstitutionENS0_12NodeTemplateILb0EEES4_PNS0_14ProofGeneratorE(ptr noundef nonnull align 8 dereferenceable(608) %11, ptr noundef nonnull %5, ptr noundef nonnull %6, ptr noundef %3)
  ret void
}